target datalayout = "e-m:e-p270:32:32-p271:32:32-p272:64:64-i64:64-i128:128-f80:128-n8:16:32:64-S128"
target triple = "x86_64-pc-linux-gnu"

%struct.expert_field = type { i32, i32 }
%struct._packet_info = type { ptr, ptr, i32, i32, %struct.nstime_t, %struct.nstime_t, %struct.nstime_t, i32, ptr, ptr, ptr, ptr, %struct._address, %struct._address, %struct._address, %struct._address, %struct._address, %struct._address, i32, ptr, i32, %struct.anon, i32, i32, i32, i32, ptr, i32, ptr, ptr, i16, i16, i32, i32, i16, i32, i32, ptr, ptr, ptr, i8, i8, i16, i16, i16, i32, i16, i16, ptr, ptr, ptr, ptr, ptr, i32 }
%struct.nstime_t = type { i64, i32 }
%struct._address = type { i32, i32, ptr, ptr }
%struct.anon = type { i8, [3 x i8] }
%struct.tcp_analysis = type { %struct._tcp_flow_t, %struct._tcp_flow_t, ptr, ptr, ptr, ptr, %struct.nstime_t, %struct.nstime_t, %struct.nstime_t, %struct.nstime_t, i32, i16, i8, ptr, i8, ptr, i32, i32, i32 }
%struct._tcp_flow_t = type { i8, i32, i32, i32, i16, i16, i16, i32, i32, i32, i8, i32, i32, ptr, i16, i32, i32, ptr, ptr, ptr, ptr }
%struct._frame_data = type { i32, i32, i32, i32, i64, ptr, ptr, ptr, i16, i16, %struct.nstime_t, %struct.nstime_t, i32, i32, i8 }
%struct._proto_node = type { ptr, ptr, ptr, ptr, ptr, ptr }
%struct.field_info = type { ptr, i32, i32, i32, i32, i32, i32, ptr, ptr, ptr, i32, i32 }

@hf_tcp_option_kind = internal global i32 0, align 4
@hf_tcp_option_len = internal global i32 0, align 4
@hf_tcp_option_wscale_shift = internal global i32 0, align 4
@hf_tcp_option_wscale_multiplier = internal global i32 0, align 4
@ett_tcp_option_wscale = internal global i32 0, align 4
@ei_tcp_opt_len_invalid = internal global %struct.expert_field zeroinitializer, align 4
@ei_tcp_option_wscale_shift_invalid = internal global %struct.expert_field zeroinitializer, align 4
@proto_tcp_option_wscale = internal global i32 0, align 4
@.str.799 = private unnamed_addr constant [2 x i8] c" \00", align 1
@.str.985 = private unnamed_addr constant [27 x i8] c"option length should be %u\00", align 1
@.str.988 = private unnamed_addr constant [22 x i8] c": %u (multiply by %u)\00", align 1
@.str.989 = private unnamed_addr constant [3 x i8] c"WS\00", align 1

; Function Attrs: nounwind uwtable
define internal void @pdu_store_window_scale_option(i8 noundef zeroext %0, ptr noundef %1) #0 {
  %3 = alloca i8, align 1
  %4 = alloca ptr, align 8
  store i8 %0, ptr %3, align 1
  store ptr %1, ptr %4, align 8
  %5 = load ptr, ptr %4, align 8
  %6 = icmp ne ptr %5, null
  br i1 %6, label %7, label %14

7:                                                ; preds = %2
  %8 = load i8, ptr %3, align 1
  %9 = zext i8 %8 to i16
  %10 = load ptr, ptr %4, align 8
  %11 = getelementptr inbounds %struct.tcp_analysis, ptr %10, i32 0, i32 2
  %12 = load ptr, ptr %11, align 8
  %13 = getelementptr inbounds %struct._tcp_flow_t, ptr %12, i32 0, i32 4
  store i16 %9, ptr %13, align 8
  br label %14

14:                                               ; preds = %7, %2
  ret void
}

; Function Attrs: nounwind uwtable
define internal void @tcp_info_append_uint(ptr noundef %0, ptr noundef %1, i32 noundef %2) #0 {
  %4 = alloca ptr, align 8
  %5 = alloca ptr, align 8
  %6 = alloca i32, align 4
  store ptr %0, ptr %4, align 8
  store ptr %1, ptr %5, align 8
  store i32 %2, ptr %6, align 4
  %7 = load ptr, ptr %4, align 8
  %8 = getelementptr inbounds %struct._packet_info, ptr %7, i32 0, i32 1
  %9 = load ptr, ptr %8, align 8
  %10 = load ptr, ptr %5, align 8
  %11 = load i32, ptr %6, align 4
  call void @col_append_str_uint(ptr noundef %9, i32 noundef 25, ptr noundef %10, i32 noundef %11, ptr noundef @.str.799)
  ret void
}

; Function Attrs: nounwind uwtable
define internal void @proto_item_set_generated(ptr noundef %0) #0 {
  %2 = alloca ptr, align 8
  store ptr %0, ptr %2, align 8
  %3 = load ptr, ptr %2, align 8
  %4 = icmp ne ptr %3, null
  br i1 %4, label %5, label %24

5:                                                ; preds = %1
  br label %6

6:                                                ; preds = %5
  %7 = load ptr, ptr %2, align 8
  %8 = getelementptr inbounds %struct._proto_node, ptr %7, i32 0, i32 4
  %9 = load ptr, ptr %8, align 8
  %10 = icmp ne ptr %9, null
  br i1 %10, label %11, label %22

11:                                               ; preds = %6
  %12 = load ptr, ptr %2, align 8
  %13 = getelementptr inbounds %struct._proto_node, ptr %12, i32 0, i32 4
  %14 = load ptr, ptr %13, align 8
  %15 = getelementptr inbounds %struct.field_info, ptr %14, i32 0, i32 6
  %16 = load i32, ptr %15, align 4
  %17 = or i32 %16, 2
  %18 = load ptr, ptr %2, align 8
  %19 = getelementptr inbounds %struct._proto_node, ptr %18, i32 0, i32 4
  %20 = load ptr, ptr %19, align 8
  %21 = getelementptr inbounds %struct.field_info, ptr %20, i32 0, i32 6
  store i32 %17, ptr %21, align 4
  br label %22

22:                                               ; preds = %11, %6
  br label %23

23:                                               ; preds = %22
  br label %24

24:                                               ; preds = %23, %1
  ret void
}

; Function Attrs: nounwind uwtable
define internal i32 @tcp_option_len_check(ptr noundef %0, ptr noundef %1, i32 noundef %2, i32 noundef %3) #0 {
  %5 = alloca i32, align 4
  %6 = alloca ptr, align 8
  %7 = alloca ptr, align 8
  %8 = alloca i32, align 4
  %9 = alloca i32, align 4
  store ptr %0, ptr %6, align 8
  store ptr %1, ptr %7, align 8
  store i32 %2, ptr %8, align 4
  store i32 %3, ptr %9, align 4
  %10 = load i32, ptr %8, align 4
  %11 = load i32, ptr %9, align 4
  %12 = icmp ne i32 %10, %11
  br i1 %12, label %13, label %18

13:                                               ; preds = %4
  %14 = load ptr, ptr %7, align 8
  %15 = load ptr, ptr %6, align 8
  %16 = load i32, ptr %9, align 4
  %17 = call ptr (ptr, ptr, ptr, ptr, ...) @expert_add_info_format(ptr noundef %14, ptr noundef %15, ptr noundef @ei_tcp_opt_len_invalid, ptr noundef @.str.985, i32 noundef %16)
  store i32 0, ptr %5, align 4
  br label %19

18:                                               ; preds = %4
  store i32 1, ptr %5, align 4
  br label %19

19:                                               ; preds = %18, %13
  %20 = load i32, ptr %5, align 4
  ret i32 %20
}

; Function Attrs: nounwind uwtable
define internal i32 @dissect_tcpopt_wscale(ptr noundef %0, ptr noundef %1, ptr noundef %2, ptr noundef %3) #0 {
  %5 = alloca i32, align 4
  %6 = alloca ptr, align 8
  %7 = alloca ptr, align 8
  %8 = alloca ptr, align 8
  %9 = alloca ptr, align 8
  %10 = alloca i8, align 1
  %11 = alloca i32, align 4
  %12 = alloca ptr, align 8
  %13 = alloca ptr, align 8
  %14 = alloca ptr, align 8
  %15 = alloca ptr, align 8
  %16 = alloca ptr, align 8
  %17 = alloca i32, align 4
  %18 = alloca ptr, align 8
  store ptr %0, ptr %6, align 8
  store ptr %1, ptr %7, align 8
  store ptr %2, ptr %8, align 8
  store ptr %3, ptr %9, align 8
  store i32 0, ptr %17, align 4
  %19 = load ptr, ptr %7, align 8
  %20 = call ptr @get_tcp_conversation_data(ptr noundef null, ptr noundef %19)
  store ptr %20, ptr %18, align 8
  %21 = load ptr, ptr %8, align 8
  %22 = load i32, ptr @proto_tcp_option_wscale, align 4
  %23 = load ptr, ptr %6, align 8
  %24 = load i32, ptr %17, align 4
  %25 = call ptr @proto_tree_add_item(ptr noundef %21, i32 noundef %22, ptr noundef %23, i32 noundef %24, i32 noundef -1, i32 noundef 0)
  store ptr %25, ptr %12, align 8
  %26 = load ptr, ptr %12, align 8
  %27 = load i32, ptr @ett_tcp_option_wscale, align 4
  %28 = call ptr @proto_item_add_subtree(ptr noundef %26, i32 noundef %27)
  store ptr %28, ptr %15, align 8
  %29 = load ptr, ptr %15, align 8
  %30 = load i32, ptr @hf_tcp_option_kind, align 4
  %31 = load ptr, ptr %6, align 8
  %32 = load i32, ptr %17, align 4
  %33 = call ptr @proto_tree_add_item(ptr noundef %29, i32 noundef %30, ptr noundef %31, i32 noundef %32, i32 noundef 1, i32 noundef 0)
  %34 = load i32, ptr %17, align 4
  %35 = add i32 %34, 1
  store i32 %35, ptr %17, align 4
  %36 = load ptr, ptr %15, align 8
  %37 = load i32, ptr @hf_tcp_option_len, align 4
  %38 = load ptr, ptr %6, align 8
  %39 = load i32, ptr %17, align 4
  %40 = call ptr @proto_tree_add_item(ptr noundef %36, i32 noundef %37, ptr noundef %38, i32 noundef %39, i32 noundef 1, i32 noundef 0)
  store ptr %40, ptr %16, align 8
  %41 = load i32, ptr %17, align 4
  %42 = add i32 %41, 1
  store i32 %42, ptr %17, align 4
  %43 = load ptr, ptr %16, align 8
  %44 = load ptr, ptr %7, align 8
  %45 = load ptr, ptr %6, align 8
  %46 = call i32 @tvb_reported_length(ptr noundef %45)
  %47 = call i32 @tcp_option_len_check(ptr noundef %43, ptr noundef %44, i32 noundef %46, i32 noundef 3)
  %48 = icmp ne i32 %47, 0
  br i1 %48, label %52, label %49

49:                                               ; preds = %4
  %50 = load ptr, ptr %6, align 8
  %51 = call i32 @tvb_captured_length(ptr noundef %50)
  store i32 %51, ptr %5, align 4
  br label %100

52:                                               ; preds = %4
  %53 = load ptr, ptr %15, align 8
  %54 = load i32, ptr @hf_tcp_option_wscale_shift, align 4
  %55 = load ptr, ptr %6, align 8
  %56 = load i32, ptr %17, align 4
  %57 = call ptr @proto_tree_add_item_ret_uint(ptr noundef %53, i32 noundef %54, ptr noundef %55, i32 noundef %56, i32 noundef 1, i32 noundef 0, ptr noundef %11)
  store ptr %57, ptr %13, align 8
  %58 = load i32, ptr %11, align 4
  %59 = icmp ugt i32 %58, 14
  br i1 %59, label %60, label %64

60:                                               ; preds = %52
  store i32 14, ptr %11, align 4
  %61 = load ptr, ptr %7, align 8
  %62 = load ptr, ptr %13, align 8
  %63 = call ptr @expert_add_info(ptr noundef %61, ptr noundef %62, ptr noundef @ei_tcp_option_wscale_shift_invalid)
  br label %64

64:                                               ; preds = %60, %52
  %65 = load ptr, ptr %15, align 8
  %66 = load i32, ptr @hf_tcp_option_wscale_multiplier, align 4
  %67 = load ptr, ptr %6, align 8
  %68 = load i32, ptr %17, align 4
  %69 = load i32, ptr %11, align 4
  %70 = shl i32 1, %69
  %71 = call ptr @proto_tree_add_uint(ptr noundef %65, i32 noundef %66, ptr noundef %67, i32 noundef %68, i32 noundef 1, i32 noundef %70)
  store ptr %71, ptr %14, align 8
  %72 = load ptr, ptr %14, align 8
  call void @proto_item_set_generated(ptr noundef %72)
  %73 = load ptr, ptr %6, align 8
  %74 = load i32, ptr %17, align 4
  %75 = call zeroext i8 @tvb_get_guint8(ptr noundef %73, i32 noundef %74)
  store i8 %75, ptr %10, align 1
  %76 = load ptr, ptr %12, align 8
  %77 = load i8, ptr %10, align 1
  %78 = zext i8 %77 to i32
  %79 = load i32, ptr %11, align 4
  %80 = shl i32 1, %79
  call void (ptr, ptr, ...) @proto_item_append_text(ptr noundef %76, ptr noundef @.str.988, i32 noundef %78, i32 noundef %80)
  %81 = load ptr, ptr %7, align 8
  %82 = load i32, ptr %11, align 4
  %83 = shl i32 1, %82
  call void @tcp_info_append_uint(ptr noundef %81, ptr noundef @.str.989, i32 noundef %83)
  %84 = load ptr, ptr %7, align 8
  %85 = getelementptr inbounds %struct._packet_info, ptr %84, i32 0, i32 8
  %86 = load ptr, ptr %85, align 8
  %87 = getelementptr inbounds %struct._frame_data, ptr %86, i32 0, i32 9
  %88 = load i16, ptr %87, align 2
  %89 = lshr i16 %88, 3
  %90 = and i16 %89, 1
  %91 = zext i16 %90 to i32
  %92 = icmp ne i32 %91, 0
  br i1 %92, label %97, label %93

93:                                               ; preds = %64
  %94 = load i32, ptr %11, align 4
  %95 = trunc i32 %94 to i8
  %96 = load ptr, ptr %18, align 8
  call void @pdu_store_window_scale_option(i8 noundef zeroext %95, ptr noundef %96)
  br label %97

97:                                               ; preds = %93, %64
  %98 = load ptr, ptr %6, align 8
  %99 = call i32 @tvb_captured_length(ptr noundef %98)
  store i32 %99, ptr %5, align 4
  br label %100

100:                                              ; preds = %97, %49
  %101 = load i32, ptr %5, align 4
  ret i32 %101
}