; Function Attrs: nounwind uwtable
define internal i32 @dissect_tcpopt_wscale(ptr noundef %0, ptr noundef %1, ptr noundef %2, ptr readnone captures(none) %3) #0 {
  %5 = alloca i32, align 4
  %6 = tail call ptr @get_tcp_conversation_data(ptr noundef null, ptr noundef %1)
  %7 = load i32, ptr @proto_tcp_option_wscale, align 4
  %8 = tail call ptr @proto_tree_add_item(ptr noundef %2, i32 noundef %7, ptr noundef %0, i32 noundef 0, i32 noundef -1, i32 noundef 0) #20
  %9 = load i32, ptr @ett_tcp_option_wscale, align 4
  %10 = tail call ptr @proto_item_add_subtree(ptr noundef %8, i32 noundef %9) #20
  %11 = load i32, ptr @hf_tcp_option_kind, align 4
  %12 = tail call ptr @proto_tree_add_item(ptr noundef %10, i32 noundef %11, ptr noundef %0, i32 noundef 0, i32 noundef 1, i32 noundef 0) #20
  %13 = load i32, ptr @hf_tcp_option_len, align 4
  %14 = tail call ptr @proto_tree_add_item(ptr noundef %10, i32 noundef %13, ptr noundef %0, i32 noundef 1, i32 noundef 1, i32 noundef 0) #20
  %15 = tail call i32 @tvb_reported_length(ptr noundef %0) #20
  %.not.i = icmp eq i32 %15, 3
  br i1 %.not.i, label %tcp_option_len_check.exit, label %16

16:                                               ; preds = %4
  %17 = tail call ptr (ptr, ptr, ptr, ptr, ...) @expert_add_info_format(ptr noundef %1, ptr noundef %14, ptr noundef nonnull @ei_tcp_opt_len_invalid, ptr noundef nonnull @.str.985, i32 noundef 3) #20
  %18 = tail call i32 @tvb_captured_length(ptr noundef %0) #20
  br label %57

tcp_option_len_check.exit:                        ; preds = %4
  %19 = load i32, ptr @hf_tcp_option_wscale_shift, align 4
  %20 = call ptr @proto_tree_add_item_ret_uint(ptr noundef %10, i32 noundef %19, ptr noundef %0, i32 noundef 2, i32 noundef 1, i32 noundef 0, ptr noundef nonnull %5) #20
  %21 = load i32, ptr %5, align 4
  %22 = icmp ugt i32 %21, 14
  br i1 %22, label %23, label %25

23:                                               ; preds = %tcp_option_len_check.exit
  store i32 14, ptr %5, align 4
  %24 = call ptr @expert_add_info(ptr noundef %1, ptr noundef %20, ptr noundef nonnull @ei_tcp_option_wscale_shift_invalid) #20
  %.pre = load i32, ptr %5, align 4
  br label %25

25:                                               ; preds = %23, %tcp_option_len_check.exit
  %26 = phi i32 [ %.pre, %23 ], [ %21, %tcp_option_len_check.exit ]
  %27 = load i32, ptr @hf_tcp_option_wscale_multiplier, align 4
  %28 = shl nuw i32 1, %26
  %29 = call ptr @proto_tree_add_uint(ptr noundef %10, i32 noundef %27, ptr noundef %0, i32 noundef 2, i32 noundef 1, i32 noundef %28) #20
  %.not.i35 = icmp eq ptr %29, null
  br i1 %.not.i35, label %proto_item_set_generated.exit, label %30

30:                                               ; preds = %25
  %31 = getelementptr inbounds nuw i8, ptr %29, i64 32
  %32 = load ptr, ptr %31, align 8
  %.not5.i = icmp eq ptr %32, null
  br i1 %.not5.i, label %proto_item_set_generated.exit, label %33

33:                                               ; preds = %30
  %34 = getelementptr inbounds nuw i8, ptr %32, i64 28
  %35 = load i32, ptr %34, align 4
  %36 = or i32 %35, 2
  store i32 %36, ptr %34, align 4
  br label %proto_item_set_generated.exit

proto_item_set_generated.exit:                    ; preds = %25, %30, %33
  %37 = call zeroext i8 @tvb_get_guint8(ptr noundef %0, i32 noundef 2) #20
  %38 = zext i8 %37 to i32
  %39 = load i32, ptr %5, align 4
  %40 = shl nuw i32 1, %39
  call void (ptr, ptr, ...) @proto_item_append_text(ptr noundef %8, ptr noundef nonnull @.str.988, i32 noundef %38, i32 noundef %40) #20
  %41 = load i32, ptr %5, align 4
  %42 = shl nuw i32 1, %41
  %43 = getelementptr i8, ptr %1, i64 8
  %.val = load ptr, ptr %43, align 8
  call void @col_append_str_uint(ptr noundef %.val, i32 noundef 25, ptr noundef nonnull @.str.989, i32 noundef %42, ptr noundef nonnull @.str.799) #20
  %44 = getelementptr inbounds nuw i8, ptr %1, i64 80
  %45 = load ptr, ptr %44, align 8
  %46 = getelementptr inbounds nuw i8, ptr %45, i64 50
  %47 = load i16, ptr %46, align 2
  %48 = and i16 %47, 8
  %.not34 = icmp ne i16 %48, 0
  %.not.i36 = icmp eq ptr %6, null
  %or.cond = select i1 %.not34, i1 true, i1 %.not.i36
  br i1 %or.cond, label %pdu_store_window_scale_option.exit, label %49

49:                                               ; preds = %proto_item_set_generated.exit
  %50 = load i32, ptr %5, align 4
  %51 = trunc i32 %50 to i16
  %52 = and i16 %51, 255
  %53 = getelementptr inbounds nuw i8, ptr %6, i64 208
  %54 = load ptr, ptr %53, align 8
  %55 = getelementptr inbounds nuw i8, ptr %54, i64 16
  store i16 %52, ptr %55, align 8
  br label %pdu_store_window_scale_option.exit

pdu_store_window_scale_option.exit:               ; preds = %49, %proto_item_set_generated.exit
  %56 = call i32 @tvb_captured_length(ptr noundef %0) #20
  br label %57

57:                                               ; preds = %pdu_store_window_scale_option.exit, %16
  %.0 = phi i32 [ %56, %pdu_store_window_scale_option.exit ], [ %18, %16 ]
  ret i32 %.0
}